target datalayout = "e-m:e-p270:32:32-p271:32:32-p272:64:64-i64:64-i128:128-f80:128-n8:16:32:64-S128"
target triple = "x86_64-pc-linux-gnu"

%"class.icu_77::RBBISymbolTable" = type <{ %"class.icu_77::SymbolTable", ptr, ptr, ptr, %"class.icu_77::UnicodeString", ptr, i32, [4 x i8] }>
%"class.icu_77::SymbolTable" = type { ptr }
%"class.icu_77::UnicodeString" = type { %"class.icu_77::Replaceable", %"union.icu_77::UnicodeString::StackBufferOrFields" }
%"class.icu_77::Replaceable" = type { %"class.icu_77::UObject" }
%"class.icu_77::UObject" = type { ptr }
%"union.icu_77::UnicodeString::StackBufferOrFields" = type { %struct.anon.0, [32 x i8] }
%struct.anon.0 = type { i16, i32, i32, ptr }
%"class.icu_77::RBBISymbolTableEntry" = type { [8 x i8], %"class.icu_77::UnicodeString", ptr }

@_ZN6icu_7720RBBISymbolTableEntryC1Ev = unnamed_addr alias void (ptr), ptr @_ZN6icu_7720RBBISymbolTableEntryC2Ev

; Function Attrs: inlinehint mustprogress nounwind uwtable
define internal noundef signext i8 @_ZL9U_FAILURE10UErrorCode(i32 noundef %0) #2 {
  %2 = alloca i32, align 4
  store i32 %0, ptr %2, align 4, !tbaa !15
  %3 = load i32, ptr %2, align 4, !tbaa !15
  %4 = icmp sgt i32 %3, 0
  %5 = zext i1 %4 to i8
  ret i8 %5
}

; Function Attrs: mustprogress uwtable
define void @_ZN6icu_7715RBBISymbolTable8addEntryERKNS_13UnicodeStringEPNS_8RBBINodeER10UErrorCode(ptr noundef nonnull align 8 dereferenceable(108) %0, ptr noundef nonnull align 8 dereferenceable(64) %1, ptr noundef %2, ptr noundef nonnull align 4 dereferenceable(4) %3) unnamed_addr #1 align 2 personality ptr @__gxx_personality_v0 {
  %5 = alloca ptr, align 8
  %6 = alloca ptr, align 8
  %7 = alloca ptr, align 8
  %8 = alloca ptr, align 8
  %9 = alloca ptr, align 8
  %10 = alloca i32, align 4
  %11 = alloca ptr, align 8
  %12 = alloca i1, align 1
  %13 = alloca ptr, align 8
  %14 = alloca i32, align 4
  store ptr %0, ptr %5, align 8, !tbaa !23
  store ptr %1, ptr %6, align 8, !tbaa !27
  store ptr %2, ptr %7, align 8, !tbaa !48
  store ptr %3, ptr %8, align 8, !tbaa !22
  %15 = load ptr, ptr %5, align 8
  call void @llvm.lifetime.start.p0(i64 8, ptr %9) #10
  %16 = load ptr, ptr %8, align 8, !tbaa !22
  %17 = load i32, ptr %16, align 4, !tbaa !15
  %18 = call noundef signext i8 @_ZL9U_FAILURE10UErrorCode(i32 noundef %17)
  %19 = icmp ne i8 %18, 0
  br i1 %19, label %20, label %21

20:                                               ; preds = %4
  store i32 1, ptr %10, align 4
  br label %64

21:                                               ; preds = %4
  %22 = getelementptr inbounds nuw %"class.icu_77::RBBISymbolTable", ptr %15, i32 0, i32 2
  %23 = load ptr, ptr %22, align 8, !tbaa !39
  %24 = load ptr, ptr %6, align 8, !tbaa !27
  %25 = call ptr @uhash_get_77(ptr noundef %23, ptr noundef %24)
  store ptr %25, ptr %9, align 8, !tbaa !43
  %26 = load ptr, ptr %9, align 8, !tbaa !43
  %27 = icmp ne ptr %26, null
  br i1 %27, label %28, label %30

28:                                               ; preds = %21
  %29 = load ptr, ptr %8, align 8, !tbaa !22
  store i32 66054, ptr %29, align 4, !tbaa !15
  store i32 1, ptr %10, align 4
  br label %64

30:                                               ; preds = %21
  %31 = call noundef ptr @_ZN6icu_777UMemorynwEm(i64 noundef 80) #10
  %32 = icmp eq ptr %31, null
  store i1 false, ptr %12, align 1
  br i1 %32, label %35, label %33

33:                                               ; preds = %30
  store ptr %31, ptr %11, align 8
  store i1 true, ptr %12, align 1
  invoke void @_ZN6icu_7720RBBISymbolTableEntryC1Ev(ptr noundef nonnull align 8 dereferenceable(80) %31)
          to label %34 unwind label %41

34:                                               ; preds = %33
  br label %35

35:                                               ; preds = %34, %30
  %36 = phi ptr [ %31, %34 ], [ null, %30 ]
  store ptr %36, ptr %9, align 8, !tbaa !43
  %37 = load ptr, ptr %9, align 8, !tbaa !43
  %38 = icmp eq ptr %37, null
  br i1 %38, label %39, label %49

39:                                               ; preds = %35
  %40 = load ptr, ptr %8, align 8, !tbaa !22
  store i32 7, ptr %40, align 4, !tbaa !15
  store i32 1, ptr %10, align 4
  br label %64

41:                                               ; preds = %33
  %42 = landingpad { ptr, i32 }
          cleanup
  %43 = extractvalue { ptr, i32 } %42, 0
  store ptr %43, ptr %13, align 8
  %44 = extractvalue { ptr, i32 } %42, 1
  store i32 %44, ptr %14, align 4
  %45 = load i1, ptr %12, align 1
  br i1 %45, label %46, label %48

46:                                               ; preds = %41
  %47 = load ptr, ptr %11, align 8
  call void @_ZN6icu_777UMemorydlEPv(ptr noundef %47) #10
  br label %48

48:                                               ; preds = %46, %41
  call void @llvm.lifetime.end.p0(i64 8, ptr %9) #10
  br label %67

49:                                               ; preds = %35
  %50 = load ptr, ptr %6, align 8, !tbaa !27
  %51 = load ptr, ptr %9, align 8, !tbaa !43
  %52 = getelementptr inbounds nuw %"class.icu_77::RBBISymbolTableEntry", ptr %51, i32 0, i32 1
  %53 = call noundef nonnull align 8 dereferenceable(64) ptr @_ZN6icu_7713UnicodeStringaSERKS0_(ptr noundef nonnull align 8 dereferenceable(64) %52, ptr noundef nonnull align 8 dereferenceable(64) %50)
  %54 = load ptr, ptr %7, align 8, !tbaa !48
  %55 = load ptr, ptr %9, align 8, !tbaa !43
  %56 = getelementptr inbounds nuw %"class.icu_77::RBBISymbolTableEntry", ptr %55, i32 0, i32 2
  store ptr %54, ptr %56, align 8, !tbaa !45
  %57 = getelementptr inbounds nuw %"class.icu_77::RBBISymbolTable", ptr %15, i32 0, i32 2
  %58 = load ptr, ptr %57, align 8, !tbaa !39
  %59 = load ptr, ptr %9, align 8, !tbaa !43
  %60 = getelementptr inbounds nuw %"class.icu_77::RBBISymbolTableEntry", ptr %59, i32 0, i32 1
  %61 = load ptr, ptr %9, align 8, !tbaa !43
  %62 = load ptr, ptr %8, align 8, !tbaa !22
  %63 = call ptr @uhash_put_77(ptr noundef %58, ptr noundef %60, ptr noundef %61, ptr noundef %62)
  store i32 0, ptr %10, align 4
  br label %64

64:                                               ; preds = %49, %39, %28, %20
  call void @llvm.lifetime.end.p0(i64 8, ptr %9) #10
  %65 = load i32, ptr %10, align 4
  switch i32 %65, label %72 [
    i32 0, label %66
    i32 1, label %66
  ]

66:                                               ; preds = %64, %64
  ret void

67:                                               ; preds = %48
  %68 = load ptr, ptr %13, align 8
  %69 = load i32, ptr %14, align 4
  %70 = insertvalue { ptr, i32 } poison, ptr %68, 0
  %71 = insertvalue { ptr, i32 } %70, i32 %69, 1
  resume { ptr, i32 } %71

72:                                               ; preds = %64
  unreachable
}