; Function Attrs: mustprogress uwtable
define void @_ZN6icu_7715RBBISymbolTable8addEntryERKNS_13UnicodeStringEPNS_8RBBINodeER10UErrorCode(ptr noundef nonnull readonly align 8 captures(none) dereferenceable(108) %0, ptr noundef nonnull align 8 dereferenceable(64) %1, ptr noundef %2, ptr noundef nonnull align 4 dereferenceable(4) %3) unnamed_addr #1 align 2 personality ptr @__gxx_personality_v0 {
  %5 = load i32, ptr %3, align 4, !tbaa !13
  %6 = icmp slt i32 %5, 1
  br i1 %6, label %7, label %25

7:                                                ; preds = %4
  %8 = getelementptr inbounds nuw i8, ptr %0, i64 16
  %9 = load ptr, ptr %8, align 8, !tbaa !28
  %10 = tail call ptr @uhash_get_77(ptr noundef %9, ptr noundef nonnull %1)
  %.not18 = icmp eq ptr %10, null
  br i1 %.not18, label %12, label %11

11:                                               ; preds = %7
  store i32 66054, ptr %3, align 4, !tbaa !13
  br label %25

12:                                               ; preds = %7
  %13 = tail call noundef ptr @_ZN6icu_777UMemorynwEm(i64 noundef 80) #13
  %14 = icmp eq ptr %13, null
  br i1 %14, label %16, label %15

15:                                               ; preds = %12
  invoke void @_ZN6icu_7720RBBISymbolTableEntryC1Ev(ptr noundef nonnull align 8 dereferenceable(80) %13)
          to label %19 unwind label %17

16:                                               ; preds = %12
  store i32 7, ptr %3, align 4, !tbaa !13
  br label %25

17:                                               ; preds = %15
  %18 = landingpad { ptr, i32 }
          cleanup
  tail call void @_ZN6icu_777UMemorydlEPv(ptr noundef nonnull %13) #13
  resume { ptr, i32 } %18

19:                                               ; preds = %15
  %20 = getelementptr inbounds nuw i8, ptr %13, i64 8
  %21 = tail call noundef nonnull align 8 dereferenceable(64) ptr @_ZN6icu_7713UnicodeStringaSERKS0_(ptr noundef nonnull align 8 dereferenceable(64) %20, ptr noundef nonnull align 8 dereferenceable(64) %1)
  %22 = getelementptr inbounds nuw i8, ptr %13, i64 72
  store ptr %2, ptr %22, align 8, !tbaa !30
  %23 = load ptr, ptr %8, align 8, !tbaa !28
  %24 = tail call ptr @uhash_put_77(ptr noundef %23, ptr noundef nonnull %20, ptr noundef nonnull %13, ptr noundef nonnull %3)
  br label %25

25:                                               ; preds = %4, %19, %16, %11
  ret void
}